(dp1
S'hlayer'
p2
(dp3
I0
(lp4
F-0.79140611066152045
aF6.4595228913447649
aF0.69032890655864687
asI1
(lp5
F-0.51614902895546777
aF-9.5571638467757083
aF0.26974819775276593
asI2
(lp6
F-1.540665748970415
aF-11.59788116590412
aF0.9842528930339085
assS'olayer'
p7
(dp8
I0
(lp9
F1.6136377692565302
aF1.1863971589652975
aF-1.7156778084838857
ass.